; Function Attrs: mustprogress uwtable
define hidden void @_ZN3smt12model_finder24cleanup_quantifier_infosERK10ptr_vectorI10quantifierE(ptr noundef nonnull align 8 dereferenceable(128) %this, ptr nocapture noundef nonnull readonly align 8 dereferenceable(8) %qs) local_unnamed_addr #3 align 2 {
entry:
  %0 = load ptr, ptr %qs, align 8
  %cmp.i.i = icmp eq ptr %0, null
  br i1 %cmp.i.i, label %for.end, label %_ZNK6vectorIP10quantifierLb0EjE3endEv.exit

_ZNK6vectorIP10quantifierLb0EjE3endEv.exit:       ; preds = %entry
  %arrayidx.i.i = getelementptr inbounds i8, ptr %0, i64 -4
  %1 = load i32, ptr %arrayidx.i.i, align 4
  %2 = zext i32 %1 to i64
  %add.ptr.i = getelementptr inbounds ptr, ptr %0, i64 %2
  %cmp.not4 = icmp eq i32 %1, 0
  br i1 %cmp.not4, label %for.end, label %for.body

for.body:                                         ; preds = %_ZNK6vectorIP10quantifierLb0EjE3endEv.exit, %for.body
  %__begin1.05 = phi ptr [ %incdec.ptr, %for.body ], [ %0, %_ZNK6vectorIP10quantifierLb0EjE3endEv.exit ]
  %3 = load ptr, ptr %__begin1.05, align 8
  %call3 = tail call noundef ptr @_ZN3smt12model_finder19get_quantifier_infoEP10quantifier(ptr noundef nonnull align 8 dereferenceable(128) %this, ptr noundef %3)
  %vtable = load ptr, ptr %call3, align 8
  %vfn = getelementptr inbounds i8, ptr %vtable, i64 16
  %4 = load ptr, ptr %vfn, align 8
  tail call void %4(ptr noundef nonnull align 8 dereferenceable(128) %call3)
  %incdec.ptr = getelementptr inbounds i8, ptr %__begin1.05, i64 8
  %cmp.not = icmp eq ptr %incdec.ptr, %add.ptr.i
  br i1 %cmp.not, label %for.end, label %for.body

for.end:                                          ; preds = %for.body, %entry, %_ZNK6vectorIP10quantifierLb0EjE3endEv.exit
  ret void
}